target datalayout = "e-m:e-p270:32:32-p271:32:32-p272:64:64-i64:64-i128:128-f80:128-n8:16:32:64-S128"
target triple = "x86_64-pc-linux-gnu"

%"class.folly::basic_fbstring" = type { %"class.folly::fbstring_core" }
%"class.folly::fbstring_core" = type { %union.anon }
%union.anon = type { %"struct.folly::fbstring_core<char>::MediumLarge" }
%"struct.folly::fbstring_core<char>::MediumLarge" = type { ptr, i64, i64 }
%"class.std::allocator" = type { i8 }

; Function Attrs: mustprogress nounwind uwtable
define linkonce_odr void @_ZN5folly13fbstring_coreIcE12setSmallSizeEm(ptr noundef nonnull align 8 dereferenceable(24) %0, i64 noundef %1) #4 comdat align 2 {
  %3 = alloca ptr, align 8
  %4 = alloca i64, align 8
  %5 = alloca i32, align 4
  store ptr %0, ptr %3, align 8, !tbaa !26
  store i64 %1, ptr %4, align 8, !tbaa !14
  %6 = load ptr, ptr %3, align 8
  call void @llvm.lifetime.start.p0(i64 4, ptr %5) #13
  store i32 0, ptr %5, align 4, !tbaa !16
  %7 = load i64, ptr %4, align 8, !tbaa !14
  %8 = sub i64 23, %7
  %9 = shl i64 %8, 0
  %10 = trunc i64 %9 to i8
  %11 = getelementptr inbounds nuw %"class.folly::fbstring_core", ptr %6, i32 0, i32 0
  %12 = getelementptr inbounds nuw [24 x i8], ptr %11, i64 0, i64 23
  store i8 %10, ptr %12, align 1, !tbaa !28
  %13 = getelementptr inbounds nuw %"class.folly::fbstring_core", ptr %6, i32 0, i32 0
  %14 = load i64, ptr %4, align 8, !tbaa !14
  %15 = getelementptr inbounds nuw [24 x i8], ptr %13, i64 0, i64 %14
  store i8 0, ptr %15, align 1, !tbaa !28
  call void @llvm.lifetime.end.p0(i64 4, ptr %5) #13
  ret void
}

; Function Attrs: noinline noreturn nounwind uwtable
define linkonce_odr hidden void @__clang_call_terminate(ptr noundef %0) #7 comdat {
  %2 = call ptr @__cxa_begin_catch(ptr %0) #13
  call void @_ZSt9terminatev() #21
  unreachable
}

; Function Attrs: mustprogress uwtable
define linkonce_odr void @_ZN5folly13fbstring_coreIcE5resetEv(ptr noundef nonnull align 8 dereferenceable(24) %0) #3 comdat align 2 {
  %2 = alloca ptr, align 8
  store ptr %0, ptr %2, align 8, !tbaa !26
  %3 = load ptr, ptr %2, align 8
  call void @_ZN5folly13fbstring_coreIcE12setSmallSizeEm(ptr noundef nonnull align 8 dereferenceable(24) %3, i64 noundef 0)
  ret void
}

; Function Attrs: mustprogress nounwind uwtable
define linkonce_odr void @_ZN5folly13fbstring_coreIcE11MediumLarge11setCapacityEmNS1_8CategoryE(ptr noundef nonnull align 8 dereferenceable(24) %0, i64 noundef %1, i8 noundef zeroext %2) #4 comdat align 2 {
  %4 = alloca ptr, align 8
  %5 = alloca i64, align 8
  %6 = alloca i8, align 1
  store ptr %0, ptr %4, align 8, !tbaa !34
  store i64 %1, ptr %5, align 8, !tbaa !14
  store i8 %2, ptr %6, align 1, !tbaa !36
  %7 = load ptr, ptr %4, align 8
  %8 = load i64, ptr %5, align 8, !tbaa !14
  %9 = load i8, ptr %6, align 1, !tbaa !36
  %10 = zext i8 %9 to i64
  %11 = shl i64 %10, 56
  %12 = or i64 %8, %11
  %13 = getelementptr inbounds nuw %"struct.folly::fbstring_core<char>::MediumLarge", ptr %7, i32 0, i32 2
  store i64 %12, ptr %13, align 8, !tbaa !38
  ret void
}

; Function Attrs: mustprogress nounwind uwtable
define linkonce_odr void @_ZN5folly13fbstring_coreIcEC2Ev(ptr noundef nonnull align 8 dereferenceable(24) %0) unnamed_addr #4 comdat align 2 personality ptr @__gxx_personality_v0 {
  %2 = alloca ptr, align 8
  store ptr %0, ptr %2, align 8, !tbaa !26
  %3 = load ptr, ptr %2, align 8
  invoke void @_ZN5folly13fbstring_coreIcE5resetEv(ptr noundef nonnull align 8 dereferenceable(24) %3)
          to label %4 unwind label %5

4:                                                ; preds = %1
  ret void

5:                                                ; preds = %1
  %6 = landingpad { ptr, i32 }
          catch ptr null
  %7 = extractvalue { ptr, i32 } %6, 0
  call void @__clang_call_terminate(ptr %7) #21
  unreachable
}

; Function Attrs: mustprogress uwtable
define linkonce_odr void @_ZN5folly13fbstring_coreIcEC2EPcmmNS_23AcquireMallocatedStringE(ptr noundef nonnull align 8 dereferenceable(24) %0, ptr noundef %1, i64 noundef %2, i64 noundef %3, i32 noundef %4) unnamed_addr #3 comdat align 2 {
  %6 = alloca ptr, align 8
  %7 = alloca ptr, align 8
  %8 = alloca i64, align 8
  %9 = alloca i64, align 8
  %10 = alloca i32, align 4
  store ptr %0, ptr %6, align 8, !tbaa !26
  store ptr %1, ptr %7, align 8, !tbaa !11
  store i64 %2, ptr %8, align 8, !tbaa !14
  store i64 %3, ptr %9, align 8, !tbaa !14
  store i32 %4, ptr %10, align 4, !tbaa !24
  %11 = load ptr, ptr %6, align 8
  %12 = load i64, ptr %8, align 8, !tbaa !14
  %13 = icmp ugt i64 %12, 0
  br i1 %13, label %14, label %24

14:                                               ; preds = %5
  %15 = load ptr, ptr %7, align 8, !tbaa !11
  %16 = getelementptr inbounds nuw %"class.folly::fbstring_core", ptr %11, i32 0, i32 0
  %17 = getelementptr inbounds nuw %"struct.folly::fbstring_core<char>::MediumLarge", ptr %16, i32 0, i32 0
  store ptr %15, ptr %17, align 8, !tbaa !28
  %18 = load i64, ptr %8, align 8, !tbaa !14
  %19 = getelementptr inbounds nuw %"class.folly::fbstring_core", ptr %11, i32 0, i32 0
  %20 = getelementptr inbounds nuw %"struct.folly::fbstring_core<char>::MediumLarge", ptr %19, i32 0, i32 1
  store i64 %18, ptr %20, align 8, !tbaa !28
  %21 = getelementptr inbounds nuw %"class.folly::fbstring_core", ptr %11, i32 0, i32 0
  %22 = load i64, ptr %9, align 8, !tbaa !14
  %23 = sub i64 %22, 1
  call void @_ZN5folly13fbstring_coreIcE11MediumLarge11setCapacityEmNS1_8CategoryE(ptr noundef nonnull align 8 dereferenceable(24) %21, i64 noundef %23, i8 noundef zeroext -128)
  br label %26

24:                                               ; preds = %5
  %25 = load ptr, ptr %7, align 8, !tbaa !11
  call void @free(ptr noundef %25) #13
  call void @_ZN5folly13fbstring_coreIcE5resetEv(ptr noundef nonnull align 8 dereferenceable(24) %11)
  br label %26

26:                                               ; preds = %24, %14
  ret void
}

; Function Attrs: mustprogress nounwind uwtable
define linkonce_odr void @_ZNSt15__new_allocatorIcEC2Ev(ptr noundef nonnull align 1 dereferenceable(1) %0) unnamed_addr #4 comdat align 2 {
  %2 = alloca ptr, align 8
  store ptr %0, ptr %2, align 8, !tbaa !22
  ret void
}

; Function Attrs: mustprogress nounwind uwtable
define linkonce_odr void @_ZN5folly14basic_fbstringIcSt11char_traitsIcESaIcENS_13fbstring_coreIcEEEC2ERKS3_(ptr noundef nonnull align 8 dereferenceable(24) %0, ptr noundef nonnull align 1 dereferenceable(1) %1) unnamed_addr #4 comdat align 2 {
  %3 = alloca ptr, align 8
  %4 = alloca ptr, align 8
  store ptr %0, ptr %3, align 8, !tbaa !18
  store ptr %1, ptr %4, align 8, !tbaa !20
  %5 = load ptr, ptr %3, align 8
  %6 = getelementptr inbounds nuw %"class.folly::basic_fbstring", ptr %5, i32 0, i32 0
  call void @_ZN5folly13fbstring_coreIcEC2Ev(ptr noundef nonnull align 8 dereferenceable(24) %6) #13
  ret void
}

; Function Attrs: mustprogress uwtable
define linkonce_odr void @_ZN5folly14basic_fbstringIcSt11char_traitsIcESaIcENS_13fbstring_coreIcEEEC2EPcmmNS_23AcquireMallocatedStringE(ptr noundef nonnull align 8 dereferenceable(24) %0, ptr noundef %1, i64 noundef %2, i64 noundef %3, i32 noundef %4) unnamed_addr #3 comdat align 2 {
  %6 = alloca ptr, align 8
  %7 = alloca ptr, align 8
  %8 = alloca i64, align 8
  %9 = alloca i64, align 8
  %10 = alloca i32, align 4
  store ptr %0, ptr %6, align 8, !tbaa !18
  store ptr %1, ptr %7, align 8, !tbaa !11
  store i64 %2, ptr %8, align 8, !tbaa !14
  store i64 %3, ptr %9, align 8, !tbaa !14
  store i32 %4, ptr %10, align 4, !tbaa !24
  %11 = load ptr, ptr %6, align 8
  %12 = getelementptr inbounds nuw %"class.folly::basic_fbstring", ptr %11, i32 0, i32 0
  %13 = load ptr, ptr %7, align 8, !tbaa !11
  %14 = load i64, ptr %8, align 8, !tbaa !14
  %15 = load i64, ptr %9, align 8, !tbaa !14
  %16 = load i32, ptr %10, align 4, !tbaa !24
  call void @_ZN5folly13fbstring_coreIcEC2EPcmmNS_23AcquireMallocatedStringE(ptr noundef nonnull align 8 dereferenceable(24) %12, ptr noundef %13, i64 noundef %14, i64 noundef %15, i32 noundef %16)
  ret void
}

; Function Attrs: mustprogress nounwind uwtable
define linkonce_odr void @_ZNSt15__new_allocatorIcED2Ev(ptr noundef nonnull align 1 dereferenceable(1) %0) unnamed_addr #4 comdat align 2 {
  %2 = alloca ptr, align 8
  store ptr %0, ptr %2, align 8, !tbaa !22
  ret void
}

; Function Attrs: mustprogress nounwind uwtable
define available_externally void @_ZNSaIcEC2Ev(ptr noundef nonnull align 1 dereferenceable(1) %0) unnamed_addr #4 align 2 {
  %2 = alloca ptr, align 8
  store ptr %0, ptr %2, align 8, !tbaa !20
  %3 = load ptr, ptr %2, align 8
  call void @_ZNSt15__new_allocatorIcEC2Ev(ptr noundef nonnull align 1 dereferenceable(1) %3) #13
  ret void
}

; Function Attrs: mustprogress nounwind uwtable
define linkonce_odr void @_ZN5folly14basic_fbstringIcSt11char_traitsIcESaIcENS_13fbstring_coreIcEEEC2Ev(ptr noundef nonnull align 8 dereferenceable(24) %0) unnamed_addr #4 comdat align 2 {
  %2 = alloca ptr, align 8
  %3 = alloca %"class.std::allocator", align 1
  store ptr %0, ptr %2, align 8, !tbaa !18
  %4 = load ptr, ptr %2, align 8
  call void @llvm.lifetime.start.p0(i64 1, ptr %3) #13
  call void @_ZNSaIcEC2Ev(ptr noundef nonnull align 1 dereferenceable(1) %3) #13
  call void @_ZN5folly14basic_fbstringIcSt11char_traitsIcESaIcENS_13fbstring_coreIcEEEC2ERKS3_(ptr noundef nonnull align 8 dereferenceable(24) %4, ptr noundef nonnull align 1 dereferenceable(1) %3) #13
  call void @_ZNSt15__new_allocatorIcED2Ev(ptr noundef nonnull align 1 dereferenceable(1) %3) #13
  call void @llvm.lifetime.end.p0(i64 1, ptr %3) #13
  ret void
}

; Function Attrs: mustprogress uwtable
define void @_ZN5folly8demangleEPKc(ptr dead_on_unwind noalias writable sret(%"class.folly::basic_fbstring") align 8 %0, ptr noundef %1) #3 personality ptr @__gxx_personality_v0 {
  %3 = alloca ptr, align 8
  %4 = alloca ptr, align 8
  %5 = alloca i64, align 8
  %6 = alloca %"class.std::allocator", align 1
  %7 = alloca ptr, align 8
  %8 = alloca i32, align 4
  %9 = alloca i32, align 4
  %10 = alloca i32, align 4
  %11 = alloca i64, align 8
  %12 = alloca ptr, align 8
  %13 = alloca %"class.std::allocator", align 1
  %14 = alloca %"class.std::allocator", align 1
  store ptr %0, ptr %3, align 8
  store ptr %1, ptr %4, align 8, !tbaa !11
  %15 = load ptr, ptr %4, align 8, !tbaa !11
  %16 = icmp ne ptr %15, null
  br i1 %16, label %18, label %17

17:                                               ; preds = %2
  call void @_ZN5folly14basic_fbstringIcSt11char_traitsIcESaIcENS_13fbstring_coreIcEEEC2Ev(ptr noundef nonnull align 8 dereferenceable(24) %0) #13
  br label %61

18:                                               ; preds = %2
  call void @llvm.lifetime.start.p0(i64 8, ptr %5) #13
  %19 = load ptr, ptr %4, align 8, !tbaa !11
  %20 = call i64 @strlen(ptr noundef %19) #20
  store i64 %20, ptr %5, align 8, !tbaa !14
  %21 = load i64, ptr %5, align 8, !tbaa !14
  %22 = icmp ugt i64 %21, 1024
  br i1 %22, label %23, label %31

23:                                               ; preds = %18
  %24 = load ptr, ptr %4, align 8, !tbaa !11
  %25 = load i64, ptr %5, align 8, !tbaa !14
  call void @llvm.lifetime.start.p0(i64 1, ptr %6) #13
  call void @_ZNSaIcEC2Ev(ptr noundef nonnull align 1 dereferenceable(1) %6) #13
  invoke void @_ZN5folly14basic_fbstringIcSt11char_traitsIcESaIcENS_13fbstring_coreIcEEEC2EPKcmRKS3_(ptr noundef nonnull align 8 dereferenceable(24) %0, ptr noundef %24, i64 noundef %25, ptr noundef nonnull align 1 dereferenceable(1) %6)
          to label %26 unwind label %27

26:                                               ; preds = %23
  call void @_ZNSt15__new_allocatorIcED2Ev(ptr noundef nonnull align 1 dereferenceable(1) %6) #13
  call void @llvm.lifetime.end.p0(i64 1, ptr %6) #13
  store i32 1, ptr %9, align 4
  br label %32

27:                                               ; preds = %23
  %28 = landingpad { ptr, i32 }
          cleanup
  %29 = extractvalue { ptr, i32 } %28, 0
  store ptr %29, ptr %7, align 8
  %30 = extractvalue { ptr, i32 } %28, 1
  store i32 %30, ptr %8, align 4
  call void @_ZNSt15__new_allocatorIcED2Ev(ptr noundef nonnull align 1 dereferenceable(1) %6) #13
  call void @llvm.lifetime.end.p0(i64 1, ptr %6) #13
  call void @llvm.lifetime.end.p0(i64 8, ptr %5) #13
  br label %62

31:                                               ; preds = %18
  store i32 0, ptr %9, align 4
  br label %32

32:                                               ; preds = %31, %26
  call void @llvm.lifetime.end.p0(i64 8, ptr %5) #13
  %33 = load i32, ptr %9, align 4
  switch i32 %33, label %67 [
    i32 0, label %34
    i32 1, label %61
  ]

34:                                               ; preds = %32
  %35 = icmp ne ptr @__cxa_demangle, null
  br i1 %35, label %36, label %54

36:                                               ; preds = %34
  call void @llvm.lifetime.start.p0(i64 4, ptr %10) #13
  call void @llvm.lifetime.start.p0(i64 8, ptr %11) #13
  store i64 0, ptr %11, align 8, !tbaa !14
  call void @llvm.lifetime.start.p0(i64 8, ptr %12) #13
  %37 = load ptr, ptr %4, align 8, !tbaa !11
  %38 = call noundef ptr @__cxa_demangle(ptr noundef %37, ptr noundef null, ptr noundef %11, ptr noundef %10)
  store ptr %38, ptr %12, align 8, !tbaa !11
  %39 = load i32, ptr %10, align 4, !tbaa !16
  %40 = icmp ne i32 %39, 0
  br i1 %40, label %41, label %48

41:                                               ; preds = %36
  %42 = load ptr, ptr %4, align 8, !tbaa !11
  call void @llvm.lifetime.start.p0(i64 1, ptr %13) #13
  call void @_ZNSaIcEC2Ev(ptr noundef nonnull align 1 dereferenceable(1) %13) #13
  invoke void @_ZN5folly14basic_fbstringIcSt11char_traitsIcESaIcENS_13fbstring_coreIcEEEC2EPKcRKS3_(ptr noundef nonnull align 8 dereferenceable(24) %0, ptr noundef %42, ptr noundef nonnull align 1 dereferenceable(1) %13)
          to label %43 unwind label %44

43:                                               ; preds = %41
  call void @_ZNSt15__new_allocatorIcED2Ev(ptr noundef nonnull align 1 dereferenceable(1) %13) #13
  call void @llvm.lifetime.end.p0(i64 1, ptr %13) #13
  store i32 1, ptr %9, align 4
  br label %53

44:                                               ; preds = %41
  %45 = landingpad { ptr, i32 }
          cleanup
  %46 = extractvalue { ptr, i32 } %45, 0
  store ptr %46, ptr %7, align 8
  %47 = extractvalue { ptr, i32 } %45, 1
  store i32 %47, ptr %8, align 4
  call void @_ZNSt15__new_allocatorIcED2Ev(ptr noundef nonnull align 1 dereferenceable(1) %13) #13
  call void @llvm.lifetime.end.p0(i64 1, ptr %13) #13
  call void @llvm.lifetime.end.p0(i64 8, ptr %12) #13
  call void @llvm.lifetime.end.p0(i64 8, ptr %11) #13
  call void @llvm.lifetime.end.p0(i64 4, ptr %10) #13
  br label %62

48:                                               ; preds = %36
  %49 = load ptr, ptr %12, align 8, !tbaa !11
  %50 = load ptr, ptr %12, align 8, !tbaa !11
  %51 = call i64 @strlen(ptr noundef %50) #20
  %52 = load i64, ptr %11, align 8, !tbaa !14
  call void @_ZN5folly14basic_fbstringIcSt11char_traitsIcESaIcENS_13fbstring_coreIcEEEC2EPcmmNS_23AcquireMallocatedStringE(ptr noundef nonnull align 8 dereferenceable(24) %0, ptr noundef %49, i64 noundef %51, i64 noundef %52, i32 noundef 0)
  store i32 1, ptr %9, align 4
  br label %53

53:                                               ; preds = %48, %43
  call void @llvm.lifetime.end.p0(i64 8, ptr %12) #13
  call void @llvm.lifetime.end.p0(i64 8, ptr %11) #13
  call void @llvm.lifetime.end.p0(i64 4, ptr %10) #13
  br label %61

54:                                               ; preds = %34
  %55 = load ptr, ptr %4, align 8, !tbaa !11
  call void @llvm.lifetime.start.p0(i64 1, ptr %14) #13
  call void @_ZNSaIcEC2Ev(ptr noundef nonnull align 1 dereferenceable(1) %14) #13
  invoke void @_ZN5folly14basic_fbstringIcSt11char_traitsIcESaIcENS_13fbstring_coreIcEEEC2EPKcRKS3_(ptr noundef nonnull align 8 dereferenceable(24) %0, ptr noundef %55, ptr noundef nonnull align 1 dereferenceable(1) %14)
          to label %56 unwind label %57

56:                                               ; preds = %54
  call void @_ZNSt15__new_allocatorIcED2Ev(ptr noundef nonnull align 1 dereferenceable(1) %14) #13
  call void @llvm.lifetime.end.p0(i64 1, ptr %14) #13
  br label %61

57:                                               ; preds = %54
  %58 = landingpad { ptr, i32 }
          cleanup
  %59 = extractvalue { ptr, i32 } %58, 0
  store ptr %59, ptr %7, align 8
  %60 = extractvalue { ptr, i32 } %58, 1
  store i32 %60, ptr %8, align 4
  call void @_ZNSt15__new_allocatorIcED2Ev(ptr noundef nonnull align 1 dereferenceable(1) %14) #13
  call void @llvm.lifetime.end.p0(i64 1, ptr %14) #13
  br label %62

61:                                               ; preds = %56, %53, %32, %17
  ret void

62:                                               ; preds = %57, %44, %27
  %63 = load ptr, ptr %7, align 8
  %64 = load i32, ptr %8, align 4
  %65 = insertvalue { ptr, i32 } poison, ptr %63, 0
  %66 = insertvalue { ptr, i32 } %65, i32 %64, 1
  resume { ptr, i32 } %66

67:                                               ; preds = %32
  unreachable
}