; Function Attrs: mustprogress uwtable
define void @_ZN5folly8demangleEPKc(ptr dead_on_unwind noalias writable sret(%"class.folly::basic_fbstring") align 8 %0, ptr noundef %1) local_unnamed_addr #2 personality ptr @__gxx_personality_v0 {
  %3 = alloca %"class.std::allocator", align 1
  %4 = alloca i32, align 4
  %5 = alloca i64, align 8
  %6 = alloca %"class.std::allocator", align 1
  %7 = alloca %"class.std::allocator", align 1
  %.not = icmp eq ptr %1, null
  br i1 %.not, label %8, label %10

8:                                                ; preds = %2
  %9 = getelementptr inbounds nuw i8, ptr %0, i64 23
  store i8 23, ptr %9, align 1, !tbaa !7
  store i8 0, ptr %0, align 8, !tbaa !7
  br label %30

10:                                               ; preds = %2
  %11 = tail call i64 @strlen(ptr noundef nonnull dereferenceable(1) %1) #21
  %12 = icmp ugt i64 %11, 1024
  br i1 %12, label %13, label %14

13:                                               ; preds = %10
  call void @llvm.lifetime.start.p0(i64 1, ptr nonnull %3) #22
  call void @_ZN5folly14basic_fbstringIcSt11char_traitsIcESaIcENS_13fbstring_coreIcEEEC2EPKcmRKS3_(ptr noundef nonnull align 8 dereferenceable(24) %0, ptr noundef nonnull %1, i64 noundef %11, ptr noundef nonnull align 1 dereferenceable(1) %3)
  call void @llvm.lifetime.end.p0(i64 1, ptr nonnull %3) #22
  br label %30

14:                                               ; preds = %10
  %.not16 = icmp eq ptr @__cxa_demangle, null
  br i1 %.not16, label %29, label %15

15:                                               ; preds = %14
  call void @llvm.lifetime.start.p0(i64 4, ptr nonnull %4) #22
  call void @llvm.lifetime.start.p0(i64 8, ptr nonnull %5) #22
  store i64 0, ptr %5, align 8, !tbaa !10
  %16 = call noundef ptr @__cxa_demangle(ptr noundef nonnull %1, ptr noundef null, ptr noundef nonnull %5, ptr noundef nonnull %4)
  %17 = load i32, ptr %4, align 4, !tbaa !12
  %.not17 = icmp eq i32 %17, 0
  br i1 %.not17, label %19, label %18

18:                                               ; preds = %15
  call void @llvm.lifetime.start.p0(i64 1, ptr nonnull %6) #22
  call void @_ZN5folly14basic_fbstringIcSt11char_traitsIcESaIcENS_13fbstring_coreIcEEEC2EPKcRKS3_(ptr noundef nonnull align 8 dereferenceable(24) %0, ptr noundef nonnull %1, ptr noundef nonnull align 1 dereferenceable(1) %6)
  call void @llvm.lifetime.end.p0(i64 1, ptr nonnull %6) #22
  br label %_ZN5folly14basic_fbstringIcSt11char_traitsIcESaIcENS_13fbstring_coreIcEEEC2EPcmmNS_23AcquireMallocatedStringE.exit

19:                                               ; preds = %15
  %20 = call i64 @strlen(ptr noundef nonnull dereferenceable(1) %16) #21
  %.not.i.i = icmp eq i64 %20, 0
  br i1 %.not.i.i, label %27, label %21

21:                                               ; preds = %19
  %22 = load i64, ptr %5, align 8, !tbaa !10
  store ptr %16, ptr %0, align 8, !tbaa !7
  %23 = getelementptr inbounds nuw i8, ptr %0, i64 8
  store i64 %20, ptr %23, align 8, !tbaa !7
  %24 = add i64 %22, 9223372036854775807
  %25 = or i64 %24, -9223372036854775808
  %26 = getelementptr inbounds nuw i8, ptr %0, i64 16
  store i64 %25, ptr %26, align 8, !tbaa !14
  br label %_ZN5folly14basic_fbstringIcSt11char_traitsIcESaIcENS_13fbstring_coreIcEEEC2EPcmmNS_23AcquireMallocatedStringE.exit

27:                                               ; preds = %19
  call void @free(ptr noundef nonnull %16) #22
  %28 = getelementptr inbounds nuw i8, ptr %0, i64 23
  store i8 23, ptr %28, align 1, !tbaa !7
  store i8 0, ptr %0, align 8, !tbaa !7
  br label %_ZN5folly14basic_fbstringIcSt11char_traitsIcESaIcENS_13fbstring_coreIcEEEC2EPcmmNS_23AcquireMallocatedStringE.exit

_ZN5folly14basic_fbstringIcSt11char_traitsIcESaIcENS_13fbstring_coreIcEEEC2EPcmmNS_23AcquireMallocatedStringE.exit: ; preds = %27, %21, %18
  call void @llvm.lifetime.end.p0(i64 8, ptr nonnull %5) #22
  call void @llvm.lifetime.end.p0(i64 4, ptr nonnull %4) #22
  br label %30

29:                                               ; preds = %14
  call void @llvm.lifetime.start.p0(i64 1, ptr nonnull %7) #22
  call void @_ZN5folly14basic_fbstringIcSt11char_traitsIcESaIcENS_13fbstring_coreIcEEEC2EPKcRKS3_(ptr noundef nonnull align 8 dereferenceable(24) %0, ptr noundef nonnull %1, ptr noundef nonnull align 1 dereferenceable(1) %7)
  call void @llvm.lifetime.end.p0(i64 1, ptr nonnull %7) #22
  br label %30

30:                                               ; preds = %13, %29, %_ZN5folly14basic_fbstringIcSt11char_traitsIcESaIcENS_13fbstring_coreIcEEEC2EPcmmNS_23AcquireMallocatedStringE.exit, %8
  ret void
}